target datalayout = "e-m:e-p270:32:32-p271:32:32-p272:64:64-i64:64-i128:128-f80:128-n8:16:32:64-S128"
target triple = "x86_64-pc-linux-gnu"

%"class.icu_77::RBBITableBuilder" = type <{ ptr, ptr, ptr, ptr, ptr, ptr, i32, [4 x i8] }>
%"class.icu_77::UVector" = type { %"class.icu_77::UObject", i32, i32, ptr, ptr, ptr }
%"class.icu_77::UObject" = type { ptr }
%"class.icu_77::UnicodeString" = type { %"class.icu_77::Replaceable", %"union.icu_77::UnicodeString::StackBufferOrFields" }
%"class.icu_77::Replaceable" = type { %"class.icu_77::UObject" }
%"union.icu_77::UnicodeString::StackBufferOrFields" = type { %struct.anon.0, [32 x i8] }
%struct.anon.0 = type { i16, i32, i32, ptr }
%"class.icu_77::RBBINode" = type { i32, ptr, ptr, ptr, ptr, i32, %"class.icu_77::UnicodeString", i32, i32, i8, i32, i8, i8, i8, ptr, ptr, ptr }
%"class.icu_77::RBBIStateDescriptor" = type { i8, i32, i32, ptr, i32, ptr, ptr }
%"class.icu_77::UVector32" = type { %"class.icu_77::UObject", i32, i32, i32, ptr }

; Function Attrs: inlinehint mustprogress nounwind uwtable
define linkonce_odr noundef i32 @_ZNK6icu_779UVector3210elementAtiEi(ptr noundef nonnull align 8 dereferenceable(32) %0, i32 noundef %1) #1 comdat align 2 {
  %3 = alloca ptr, align 8
  %4 = alloca i32, align 4
  store ptr %0, ptr %3, align 8, !tbaa !110
  store i32 %1, ptr %4, align 4, !tbaa !26
  %5 = load ptr, ptr %3, align 8
  %6 = load i32, ptr %4, align 4, !tbaa !26
  %7 = icmp sge i32 %6, 0
  br i1 %7, label %8, label %25

8:                                                ; preds = %2
  %9 = getelementptr inbounds nuw %"class.icu_77::UVector32", ptr %5, i32 0, i32 1
  %10 = load i32, ptr %9, align 8, !tbaa !111
  %11 = icmp sgt i32 %10, 0
  br i1 %11, label %12, label %25

12:                                               ; preds = %8
  %13 = getelementptr inbounds nuw %"class.icu_77::UVector32", ptr %5, i32 0, i32 1
  %14 = load i32, ptr %13, align 8, !tbaa !111
  %15 = load i32, ptr %4, align 4, !tbaa !26
  %16 = sub nsw i32 %14, %15
  %17 = icmp sgt i32 %16, 0
  br i1 %17, label %18, label %25

18:                                               ; preds = %12
  %19 = getelementptr inbounds nuw %"class.icu_77::UVector32", ptr %5, i32 0, i32 4
  %20 = load ptr, ptr %19, align 8, !tbaa !114
  %21 = load i32, ptr %4, align 4, !tbaa !26
  %22 = sext i32 %21 to i64
  %23 = getelementptr inbounds i32, ptr %20, i64 %22
  %24 = load i32, ptr %23, align 4, !tbaa !26
  br label %26

25:                                               ; preds = %12, %8, %2
  br label %26

26:                                               ; preds = %25, %18
  %27 = phi i32 [ %24, %18 ], [ 0, %25 ]
  ret i32 %27
}

; Function Attrs: inlinehint mustprogress nounwind uwtable
define linkonce_odr noundef i32 @_ZNK6icu_777UVector4sizeEv(ptr noundef nonnull align 8 dereferenceable(40) %0) #1 comdat align 2 {
  %2 = alloca ptr, align 8
  store ptr %0, ptr %2, align 8, !tbaa !31
  %3 = load ptr, ptr %2, align 8
  %4 = getelementptr inbounds nuw %"class.icu_77::UVector", ptr %3, i32 0, i32 1
  %5 = load i32, ptr %4, align 8, !tbaa !32
  ret i32 %5
}

; Function Attrs: inlinehint mustprogress nounwind uwtable
define internal noundef signext i8 @_ZL9U_FAILURE10UErrorCode(i32 noundef %0) #1 {
  %2 = alloca i32, align 4
  store i32 %0, ptr %2, align 4, !tbaa !24
  %3 = load i32, ptr %2, align 4, !tbaa !24
  %4 = icmp sgt i32 %3, 0
  %5 = zext i1 %4 to i8
  ret i8 %5
}

; Function Attrs: mustprogress uwtable
define void @_ZN6icu_7716RBBITableBuilder19flagLookAheadStatesEv(ptr noundef nonnull align 8 dereferenceable(52) %0) #0 align 2 personality ptr @__gxx_personality_v0 {
  %2 = alloca ptr, align 8
  %3 = alloca %"class.icu_77::UVector", align 8
  %4 = alloca ptr, align 8
  %5 = alloca i32, align 4
  %6 = alloca i32, align 4
  %7 = alloca ptr, align 8
  %8 = alloca i32, align 4
  %9 = alloca i32, align 4
  %10 = alloca ptr, align 8
  %11 = alloca i32, align 4
  %12 = alloca i32, align 4
  store ptr %0, ptr %2, align 8, !tbaa !3
  %13 = load ptr, ptr %2, align 8
  %14 = getelementptr inbounds nuw %"class.icu_77::RBBITableBuilder", ptr %13, i32 0, i32 2
  %15 = load ptr, ptr %14, align 8, !tbaa !19
  %16 = load i32, ptr %15, align 4, !tbaa !24
  %17 = call noundef signext i8 @_ZL9U_FAILURE10UErrorCode(i32 noundef %16)
  %18 = icmp ne i8 %17, 0
  br i1 %18, label %19, label %20

19:                                               ; preds = %1
  br label %107

20:                                               ; preds = %1
  call void @llvm.lifetime.start.p0(i64 40, ptr %3) #11
  %21 = getelementptr inbounds nuw %"class.icu_77::RBBITableBuilder", ptr %13, i32 0, i32 2
  %22 = load ptr, ptr %21, align 8, !tbaa !19
  call void @_ZN6icu_777UVectorC1ER10UErrorCode(ptr noundef nonnull align 8 dereferenceable(40) %3, ptr noundef nonnull align 4 dereferenceable(4) %22)
  call void @llvm.lifetime.start.p0(i64 8, ptr %4) #11
  call void @llvm.lifetime.start.p0(i64 4, ptr %5) #11
  call void @llvm.lifetime.start.p0(i64 4, ptr %6) #11
  %23 = getelementptr inbounds nuw %"class.icu_77::RBBITableBuilder", ptr %13, i32 0, i32 1
  %24 = load ptr, ptr %23, align 8, !tbaa !36
  %25 = load ptr, ptr %24, align 8, !tbaa !37
  %26 = getelementptr inbounds nuw %"class.icu_77::RBBITableBuilder", ptr %13, i32 0, i32 2
  %27 = load ptr, ptr %26, align 8, !tbaa !19
  invoke void @_ZN6icu_778RBBINode9findNodesEPNS_7UVectorENS0_8NodeTypeER10UErrorCode(ptr noundef nonnull align 8 dereferenceable(160) %25, ptr noundef %3, i32 noundef 4, ptr noundef nonnull align 4 dereferenceable(4) %27)
          to label %28 unwind label %36

28:                                               ; preds = %20
  %29 = getelementptr inbounds nuw %"class.icu_77::RBBITableBuilder", ptr %13, i32 0, i32 2
  %30 = load ptr, ptr %29, align 8, !tbaa !19
  %31 = load i32, ptr %30, align 4, !tbaa !24
  %32 = invoke noundef signext i8 @_ZL9U_FAILURE10UErrorCode(i32 noundef %31)
          to label %33 unwind label %36

33:                                               ; preds = %28
  %34 = icmp ne i8 %32, 0
  br i1 %34, label %35, label %40

35:                                               ; preds = %33
  store i32 1, ptr %9, align 4
  br label %105

36:                                               ; preds = %50, %46, %41, %28, %20
  %37 = landingpad { ptr, i32 }
          cleanup
  %38 = extractvalue { ptr, i32 } %37, 0
  store ptr %38, ptr %7, align 8
  %39 = extractvalue { ptr, i32 } %37, 1
  store i32 %39, ptr %8, align 4
  br label %108

40:                                               ; preds = %33
  store i32 0, ptr %5, align 4, !tbaa !26
  br label %41

41:                                               ; preds = %101, %40
  %42 = load i32, ptr %5, align 4, !tbaa !26
  %43 = invoke noundef i32 @_ZNK6icu_777UVector4sizeEv(ptr noundef nonnull align 8 dereferenceable(40) %3)
          to label %44 unwind label %36

44:                                               ; preds = %41
  %45 = icmp slt i32 %42, %43
  br i1 %45, label %46, label %104

46:                                               ; preds = %44
  %47 = load i32, ptr %5, align 4, !tbaa !26
  %48 = invoke noundef ptr @_ZNK6icu_777UVector9elementAtEi(ptr noundef nonnull align 8 dereferenceable(40) %3, i32 noundef %47)
          to label %49 unwind label %36

49:                                               ; preds = %46
  store ptr %48, ptr %4, align 8, !tbaa !37
  store i32 0, ptr %6, align 4, !tbaa !26
  br label %50

50:                                               ; preds = %95, %49
  %51 = load i32, ptr %6, align 4, !tbaa !26
  %52 = getelementptr inbounds nuw %"class.icu_77::RBBITableBuilder", ptr %13, i32 0, i32 3
  %53 = load ptr, ptr %52, align 8, !tbaa !20
  %54 = invoke noundef i32 @_ZNK6icu_777UVector4sizeEv(ptr noundef nonnull align 8 dereferenceable(40) %53)
          to label %55 unwind label %36

55:                                               ; preds = %50
  %56 = icmp slt i32 %51, %54
  br i1 %56, label %57, label %100

57:                                               ; preds = %55
  call void @llvm.lifetime.start.p0(i64 8, ptr %10) #11
  %58 = getelementptr inbounds nuw %"class.icu_77::RBBITableBuilder", ptr %13, i32 0, i32 3
  %59 = load ptr, ptr %58, align 8, !tbaa !20
  %60 = load i32, ptr %6, align 4, !tbaa !26
  %61 = invoke noundef ptr @_ZNK6icu_777UVector9elementAtEi(ptr noundef nonnull align 8 dereferenceable(40) %59, i32 noundef %60)
          to label %62 unwind label %82

62:                                               ; preds = %57
  store ptr %61, ptr %10, align 8, !tbaa !70
  call void @llvm.lifetime.start.p0(i64 4, ptr %11) #11
  %63 = load ptr, ptr %10, align 8, !tbaa !70
  %64 = getelementptr inbounds nuw %"class.icu_77::RBBIStateDescriptor", ptr %63, i32 0, i32 5
  %65 = load ptr, ptr %64, align 8, !tbaa !72
  %66 = load ptr, ptr %4, align 8, !tbaa !37
  %67 = invoke noundef i32 @_ZNK6icu_777UVector7indexOfEPvi(ptr noundef nonnull align 8 dereferenceable(40) %65, ptr noundef %66, i32 noundef 0)
          to label %68 unwind label %86

68:                                               ; preds = %62
  store i32 %67, ptr %11, align 4, !tbaa !26
  %69 = load i32, ptr %11, align 4, !tbaa !26
  %70 = icmp sge i32 %69, 0
  br i1 %70, label %71, label %94

71:                                               ; preds = %68
  call void @llvm.lifetime.start.p0(i64 4, ptr %12) #11
  %72 = getelementptr inbounds nuw %"class.icu_77::RBBITableBuilder", ptr %13, i32 0, i32 5
  %73 = load ptr, ptr %72, align 8, !tbaa !22
  %74 = load ptr, ptr %4, align 8, !tbaa !37
  %75 = getelementptr inbounds nuw %"class.icu_77::RBBINode", ptr %74, i32 0, i32 10
  %76 = load i32, ptr %75, align 4, !tbaa !55
  %77 = invoke noundef i32 @_ZNK6icu_779UVector3210elementAtiEi(ptr noundef nonnull align 8 dereferenceable(32) %73, i32 noundef %76)
          to label %78 unwind label %90

78:                                               ; preds = %71
  store i32 %77, ptr %12, align 4, !tbaa !26
  %79 = load i32, ptr %12, align 4, !tbaa !26
  %80 = load ptr, ptr %10, align 8, !tbaa !70
  %81 = getelementptr inbounds nuw %"class.icu_77::RBBIStateDescriptor", ptr %80, i32 0, i32 2
  store i32 %79, ptr %81, align 8, !tbaa !93
  call void @llvm.lifetime.end.p0(i64 4, ptr %12) #11
  br label %94

82:                                               ; preds = %57
  %83 = landingpad { ptr, i32 }
          cleanup
  %84 = extractvalue { ptr, i32 } %83, 0
  store ptr %84, ptr %7, align 8
  %85 = extractvalue { ptr, i32 } %83, 1
  store i32 %85, ptr %8, align 4
  br label %99

86:                                               ; preds = %62
  %87 = landingpad { ptr, i32 }
          cleanup
  %88 = extractvalue { ptr, i32 } %87, 0
  store ptr %88, ptr %7, align 8
  %89 = extractvalue { ptr, i32 } %87, 1
  store i32 %89, ptr %8, align 4
  br label %98

90:                                               ; preds = %71
  %91 = landingpad { ptr, i32 }
          cleanup
  %92 = extractvalue { ptr, i32 } %91, 0
  store ptr %92, ptr %7, align 8
  %93 = extractvalue { ptr, i32 } %91, 1
  store i32 %93, ptr %8, align 4
  call void @llvm.lifetime.end.p0(i64 4, ptr %12) #11
  br label %98

94:                                               ; preds = %78, %68
  call void @llvm.lifetime.end.p0(i64 4, ptr %11) #11
  call void @llvm.lifetime.end.p0(i64 8, ptr %10) #11
  br label %95

95:                                               ; preds = %94
  %96 = load i32, ptr %6, align 4, !tbaa !26
  %97 = add nsw i32 %96, 1
  store i32 %97, ptr %6, align 4, !tbaa !26
  br label %50, !llvm.loop !94

98:                                               ; preds = %90, %86
  call void @llvm.lifetime.end.p0(i64 4, ptr %11) #11
  br label %99

99:                                               ; preds = %98, %82
  call void @llvm.lifetime.end.p0(i64 8, ptr %10) #11
  br label %108

100:                                              ; preds = %55
  br label %101

101:                                              ; preds = %100
  %102 = load i32, ptr %5, align 4, !tbaa !26
  %103 = add nsw i32 %102, 1
  store i32 %103, ptr %5, align 4, !tbaa !26
  br label %41, !llvm.loop !95

104:                                              ; preds = %44
  store i32 0, ptr %9, align 4
  br label %105

105:                                              ; preds = %104, %35
  call void @llvm.lifetime.end.p0(i64 4, ptr %6) #11
  call void @llvm.lifetime.end.p0(i64 4, ptr %5) #11
  call void @llvm.lifetime.end.p0(i64 8, ptr %4) #11
  call void @_ZN6icu_777UVectorD1Ev(ptr noundef nonnull align 8 dereferenceable(40) %3) #11
  call void @llvm.lifetime.end.p0(i64 40, ptr %3) #11
  %106 = load i32, ptr %9, align 4
  switch i32 %106, label %114 [
    i32 0, label %107
    i32 1, label %107
  ]

107:                                              ; preds = %19, %105, %105
  ret void

108:                                              ; preds = %99, %36
  call void @llvm.lifetime.end.p0(i64 4, ptr %6) #11
  call void @llvm.lifetime.end.p0(i64 4, ptr %5) #11
  call void @llvm.lifetime.end.p0(i64 8, ptr %4) #11
  call void @_ZN6icu_777UVectorD1Ev(ptr noundef nonnull align 8 dereferenceable(40) %3) #11
  call void @llvm.lifetime.end.p0(i64 40, ptr %3) #11
  br label %109

109:                                              ; preds = %108
  %110 = load ptr, ptr %7, align 8
  %111 = load i32, ptr %8, align 4
  %112 = insertvalue { ptr, i32 } poison, ptr %110, 0
  %113 = insertvalue { ptr, i32 } %112, i32 %111, 1
  resume { ptr, i32 } %113

114:                                              ; preds = %105
  unreachable
}