; Function Attrs: mustprogress uwtable
define void @_ZN6icu_7716RBBITableBuilder19flagLookAheadStatesEv(ptr noundef nonnull readonly align 8 captures(none) dereferenceable(52) %0) local_unnamed_addr #0 align 2 personality ptr @__gxx_personality_v0 {
  %2 = alloca %"class.icu_77::UVector", align 8
  %3 = getelementptr inbounds nuw i8, ptr %0, i64 16
  %4 = load ptr, ptr %3, align 8, !tbaa !15
  %5 = load i32, ptr %4, align 4, !tbaa !17
  %6 = icmp slt i32 %5, 1
  br i1 %6, label %7, label %65

7:                                                ; preds = %1
  call void @llvm.lifetime.start.p0(i64 40, ptr nonnull %2) #13
  call void @_ZN6icu_777UVectorC1ER10UErrorCode(ptr noundef nonnull align 8 dereferenceable(40) %2, ptr noundef nonnull align 4 dereferenceable(4) %4)
  %8 = getelementptr inbounds nuw i8, ptr %0, i64 8
  %9 = load ptr, ptr %8, align 8, !tbaa !30
  %10 = load ptr, ptr %9, align 8, !tbaa !31
  %11 = load ptr, ptr %3, align 8, !tbaa !15
  invoke void @_ZN6icu_778RBBINode9findNodesEPNS_7UVectorENS0_8NodeTypeER10UErrorCode(ptr noundef nonnull align 8 dereferenceable(160) %10, ptr noundef nonnull %2, i32 noundef 4, ptr noundef nonnull align 4 dereferenceable(4) %11)
          to label %12 unwind label %.loopexit.split-lp

12:                                               ; preds = %7
  %13 = load ptr, ptr %3, align 8, !tbaa !15
  %14 = load i32, ptr %13, align 4, !tbaa !17
  %15 = icmp slt i32 %14, 1
  br i1 %15, label %.preheader21, label %.loopexit

.preheader21:                                     ; preds = %12
  %16 = getelementptr inbounds nuw i8, ptr %2, i64 8
  %17 = load i32, ptr %16, align 8, !tbaa !20
  %18 = icmp sgt i32 %17, 0
  br i1 %18, label %.lr.ph25, label %.loopexit

.lr.ph25:                                         ; preds = %.preheader21
  %19 = getelementptr inbounds nuw i8, ptr %0, i64 24
  %20 = getelementptr inbounds nuw i8, ptr %0, i64 40
  br label %21

.loopexit22:                                      ; preds = %21
  %lpad.loopexit = landingpad { ptr, i32 }
          cleanup
  br label %66

.loopexit.split-lp:                               ; preds = %7
  %lpad.loopexit.split-lp = landingpad { ptr, i32 }
          cleanup
  br label %66

21:                                               ; preds = %.lr.ph25, %._crit_edge
  %.024 = phi i32 [ 0, %.lr.ph25 ], [ %62, %._crit_edge ]
  %22 = invoke noundef ptr @_ZNK6icu_777UVector9elementAtEi(ptr noundef nonnull align 8 dereferenceable(40) %2, i32 noundef %.024)
          to label %.preheader unwind label %.loopexit22

.preheader:                                       ; preds = %21
  %23 = load ptr, ptr %19, align 8, !tbaa !19
  %24 = getelementptr inbounds nuw i8, ptr %23, i64 8
  %25 = load i32, ptr %24, align 8, !tbaa !20
  %26 = icmp sgt i32 %25, 0
  br i1 %26, label %.lr.ph, label %._crit_edge

.lr.ph:                                           ; preds = %.preheader
  %27 = getelementptr inbounds nuw i8, ptr %22, i64 124
  br label %28

28:                                               ; preds = %.lr.ph, %56
  %29 = phi ptr [ %23, %.lr.ph ], [ %58, %56 ]
  %.01423 = phi i32 [ 0, %.lr.ph ], [ %57, %56 ]
  %30 = invoke noundef ptr @_ZNK6icu_777UVector9elementAtEi(ptr noundef nonnull align 8 dereferenceable(40) %29, i32 noundef %.01423)
          to label %31 unwind label %52

31:                                               ; preds = %28
  %32 = getelementptr inbounds nuw i8, ptr %30, i64 32
  %33 = load ptr, ptr %32, align 8, !tbaa !64
  %34 = invoke noundef i32 @_ZNK6icu_777UVector7indexOfEPvi(ptr noundef nonnull align 8 dereferenceable(40) %33, ptr noundef %22, i32 noundef 0)
          to label %35 unwind label %54

35:                                               ; preds = %31
  %36 = icmp sgt i32 %34, -1
  br i1 %36, label %37, label %56

37:                                               ; preds = %35
  %38 = load ptr, ptr %20, align 8, !tbaa !29
  %39 = load i32, ptr %27, align 4, !tbaa !50
  %40 = icmp sgt i32 %39, -1
  %41 = getelementptr inbounds nuw i8, ptr %38, i64 8
  %42 = load i32, ptr %41, align 8
  %43 = icmp sgt i32 %42, %39
  %or.cond.i = select i1 %40, i1 %43, i1 false
  br i1 %or.cond.i, label %44, label %_ZNK6icu_779UVector3210elementAtiEi.exit

44:                                               ; preds = %37
  %45 = getelementptr inbounds nuw i8, ptr %38, i64 24
  %46 = load ptr, ptr %45, align 8, !tbaa !74
  %47 = zext nneg i32 %39 to i64
  %48 = getelementptr inbounds nuw i32, ptr %46, i64 %47
  %49 = load i32, ptr %48, align 4, !tbaa !77
  br label %_ZNK6icu_779UVector3210elementAtiEi.exit

_ZNK6icu_779UVector3210elementAtiEi.exit:         ; preds = %37, %44
  %50 = phi i32 [ %49, %44 ], [ 0, %37 ]
  %51 = getelementptr inbounds nuw i8, ptr %30, i64 8
  store i32 %50, ptr %51, align 8, !tbaa !84
  br label %56

52:                                               ; preds = %28
  %53 = landingpad { ptr, i32 }
          cleanup
  br label %66

54:                                               ; preds = %31
  %55 = landingpad { ptr, i32 }
          cleanup
  br label %66

56:                                               ; preds = %_ZNK6icu_779UVector3210elementAtiEi.exit, %35
  %57 = add nuw nsw i32 %.01423, 1
  %58 = load ptr, ptr %19, align 8, !tbaa !19
  %59 = getelementptr inbounds nuw i8, ptr %58, i64 8
  %60 = load i32, ptr %59, align 8, !tbaa !20
  %61 = icmp slt i32 %57, %60
  br i1 %61, label %28, label %._crit_edge, !llvm.loop !85

._crit_edge:                                      ; preds = %56, %.preheader
  %62 = add nuw nsw i32 %.024, 1
  %63 = load i32, ptr %16, align 8, !tbaa !20
  %64 = icmp slt i32 %62, %63
  br i1 %64, label %21, label %.loopexit, !llvm.loop !86

.loopexit:                                        ; preds = %._crit_edge, %.preheader21, %12
  call void @_ZN6icu_777UVectorD1Ev(ptr noundef nonnull align 8 dereferenceable(40) %2) #13
  call void @llvm.lifetime.end.p0(i64 40, ptr nonnull %2) #13
  br label %65

65:                                               ; preds = %1, %.loopexit
  ret void

66:                                               ; preds = %.loopexit22, %.loopexit.split-lp, %52, %54
  %.pn.pn = phi { ptr, i32 } [ %55, %54 ], [ %53, %52 ], [ %lpad.loopexit, %.loopexit22 ], [ %lpad.loopexit.split-lp, %.loopexit.split-lp ]
  call void @_ZN6icu_777UVectorD1Ev(ptr noundef nonnull align 8 dereferenceable(40) %2) #13
  call void @llvm.lifetime.end.p0(i64 40, ptr nonnull %2) #13
  resume { ptr, i32 } %.pn.pn
}